; Function Attrs: mustprogress uwtable
define void @_ZN8facebook4yoga4Node11insertChildEPS1_m(ptr noundef nonnull align 8 dereferenceable(584) %0, ptr noundef %1, i64 noundef %2) local_unnamed_addr #3 align 2 {
  %4 = alloca ptr, align 8
  store ptr %1, ptr %4, align 8, !tbaa !94
  %5 = getelementptr inbounds nuw i8, ptr %1, i64 40
  %6 = load i32, ptr %5, align 8
  %7 = and i32 %6, 201326592
  %8 = icmp eq i32 %7, 134217728
  br i1 %8, label %9, label %13

9:                                                ; preds = %3
  %10 = getelementptr inbounds nuw i8, ptr %0, i64 520
  %11 = load i64, ptr %10, align 8, !tbaa !89
  %12 = add i64 %11, 1
  store i64 %12, ptr %10, align 8, !tbaa !89
  br label %13

13:                                               ; preds = %9, %3
  %14 = getelementptr inbounds nuw i8, ptr %0, i64 536
  %15 = load ptr, ptr %14, align 8, !tbaa !93
  %16 = getelementptr inbounds ptr, ptr %15, i64 %2
  %17 = call ptr @_ZNSt6vectorIPN8facebook4yoga4NodeESaIS3_EE6insertEN9__gnu_cxx17__normal_iteratorIPKS3_S5_EERS8_(ptr noundef nonnull align 8 dereferenceable(24) %14, ptr %16, ptr noundef nonnull align 8 dereferenceable(8) %4)
  ret void
}